


ARM Macro Assembler    Page 1 


    1 00000000         ; GPIO Test program - Dave Duguid, 2011
    2 00000000         ; Modified Trevor Douglas 2014
    3 00000000         
    4 00000000         
    5 00000000         ;;;;;;;;;;;;;;;;;;;;;;;;;;;;;;;;;;
    6 00000000         ;;  Author: Shrey Shah
    7 00000000         ;;  SID: 200377176
    8 00000000         ;;  Date: November 27th 2020
    9 00000000         ;;  Class: ENSE 352 Fall 2020
   10 00000000         ;;;;;;;;;;;;;;;;;;;;;;;;;;;;;;;;;;
   11 00000000         
   12 00000000         
   13 00000000         ;;; Directives
   14 00000000                 PRESERVE8
   15 00000000                 THUMB
   16 00000000         
   17 00000000         
   18 00000000         ;;; Equates
   19 00000000         
   20 00000000 20001000 
                       INITIAL_MSP
                               EQU              0x20001000  ; Initial Main Stac
                                                            k Pointer Value
   21 00000000         
   22 00000000         
   23 00000000         ;PORT A GPIO - Base Addr: 0x40010800
   24 00000000 40010800 
                       GPIOA_CRL
                               EQU              0x40010800  ; (0x00) Port Confi
                                                            guration Register f
                                                            or Px7 -> Px0
   25 00000000 40010804 
                       GPIOA_CRH
                               EQU              0x40010804  ; (0x04) Port Confi
                                                            guration Register f
                                                            or Px15 -> Px8
   26 00000000 40010808 
                       GPIOA_IDR
                               EQU              0x40010808  ; (0x08) Port Input
                                                             Data Register
   27 00000000 4001080C 
                       GPIOA_ODR
                               EQU              0x4001080C  ; (0x0C) Port Outpu
                                                            t Data Register
   28 00000000 40010810 
                       GPIOA_BSRR
                               EQU              0x40010810  ; (0x10) Port Bit S
                                                            et/Reset Register
   29 00000000 40010814 
                       GPIOA_BRR
                               EQU              0x40010814  ; (0x14) Port Bit R
                                                            eset Register
   30 00000000 40010818 
                       GPIOA_LCKR
                               EQU              0x40010818  ; (0x18) Port Confi
                                                            guration Lock Regis
                                                            ter
   31 00000000         
   32 00000000         ;PORT B GPIO - Base Addr: 0x40010C00



ARM Macro Assembler    Page 2 


   33 00000000 40010C00 
                       GPIOB_CRL
                               EQU              0x40010C00  ; (0x00) Port Confi
                                                            guration Register f
                                                            or Px7 -> Px0
   34 00000000 40010C04 
                       GPIOB_CRH
                               EQU              0x40010C04  ; (0x04) Port Confi
                                                            guration Register f
                                                            or Px15 -> Px8
   35 00000000 40010C08 
                       GPIOB_IDR
                               EQU              0x40010C08  ; (0x08) Port Input
                                                             Data Register
   36 00000000 40010C0C 
                       GPIOB_ODR
                               EQU              0x40010C0C  ; (0x0C) Port Outpu
                                                            t Data Register
   37 00000000 40010C10 
                       GPIOB_BSRR
                               EQU              0x40010C10  ; (0x10) Port Bit S
                                                            et/Reset Register
   38 00000000 40010C14 
                       GPIOB_BRR
                               EQU              0x40010C14  ; (0x14) Port Bit R
                                                            eset Register
   39 00000000 40010C18 
                       GPIOB_LCKR
                               EQU              0x40010C18  ; (0x18) Port Confi
                                                            guration Lock Regis
                                                            ter
   40 00000000         
   41 00000000         ;The onboard LEDS are on port C bits 8 and 9
   42 00000000         ;PORT C GPIO - Base Addr: 0x40011000
   43 00000000 40011000 
                       GPIOC_CRL
                               EQU              0x40011000  ; (0x00) Port Confi
                                                            guration Register f
                                                            or Px7 -> Px0
   44 00000000 40011004 
                       GPIOC_CRH
                               EQU              0x40011004  ; (0x04) Port Confi
                                                            guration Register f
                                                            or Px15 -> Px8
   45 00000000 40011008 
                       GPIOC_IDR
                               EQU              0x40011008  ; (0x08) Port Input
                                                             Data Register
   46 00000000 4001100C 
                       GPIOC_ODR
                               EQU              0x4001100C  ; (0x0C) Port Outpu
                                                            t Data Register
   47 00000000 40011010 
                       GPIOC_BSRR
                               EQU              0x40011010  ; (0x10) Port Bit S
                                                            et/Reset Register
   48 00000000 40011014 
                       GPIOC_BRR
                               EQU              0x40011014  ; (0x14) Port Bit R



ARM Macro Assembler    Page 3 


                                                            eset Register
   49 00000000 40011018 
                       GPIOC_LCKR
                               EQU              0x40011018  ; (0x18) Port Confi
                                                            guration Lock Regis
                                                            ter
   50 00000000         
   51 00000000         ;Registers for configuring and enabling the clocks
   52 00000000         ;RCC Registers - Base Addr: 0x40021000
   53 00000000 40021000 
                       RCC_CR  EQU              0x40021000  ; Clock Control Reg
                                                            ister
   54 00000000 40021004 
                       RCC_CFGR
                               EQU              0x40021004  ; Clock Configurati
                                                            on Register
   55 00000000 40021008 
                       RCC_CIR EQU              0x40021008  ; Clock Interrupt R
                                                            egister
   56 00000000 4002100C 
                       RCC_APB2RSTR
                               EQU              0x4002100C  ; APB2 Peripheral R
                                                            eset Register
   57 00000000 40021010 
                       RCC_APB1RSTR
                               EQU              0x40021010  ; APB1 Peripheral R
                                                            eset Register
   58 00000000 40021014 
                       RCC_AHBENR
                               EQU              0x40021014  ; AHB Peripheral Cl
                                                            ock Enable Register
                                                            
   59 00000000         
   60 00000000 40021018 
                       RCC_APB2ENR
                               EQU              0x40021018  ; APB2 Peripheral C
                                                            lock Enable Registe
                                                            r  -- Used
   61 00000000         
   62 00000000 4002101C 
                       RCC_APB1ENR
                               EQU              0x4002101C  ; APB1 Peripheral C
                                                            lock Enable Registe
                                                            r
   63 00000000 40021020 
                       RCC_BDCR
                               EQU              0x40021020  ; Backup Domain Con
                                                            trol Register
   64 00000000 40021024 
                       RCC_CSR EQU              0x40021024  ; Control/Status Re
                                                            gister
   65 00000000 4002102C 
                       RCC_CFGR2
                               EQU              0x4002102C  ; Clock Configurati
                                                            on Register 2
   66 00000000         
   67 00000000         ; Times for delay routines
   68 00000000         
   69 00000000 000493E0 



ARM Macro Assembler    Page 4 


                       DELAYTIME
                               EQU              300000      ; TIMER
   70 00000000 000927C0 
                       PDTIME  EQU              600000      ; TIMER
   71 00000000 0007A120 
                       PDTIME2 EQU              500000      ; TIMER
   72 00000000 0009EB10 
                       REACT_TIME
                               EQU              650000      ; GameWaitTime
   73 00000000         ; Vector Table Mapped to Address 0 at Reset
   74 00000000                 AREA             RESET, Data, READONLY
   75 00000000                 EXPORT           __Vectors
   76 00000000         
   77 00000000 20001000 
                       __Vectors
                               DCD              INITIAL_MSP ; stack pointer val
                                                            ue when stack is em
                                                            pty
   78 00000004 00000000        DCD              Reset_Handler ; reset vector
   79 00000008         
   80 00000008                 AREA             MYCODE, CODE, READONLY
   81 00000000                 EXPORT           Reset_Handler
   82 00000000                 ENTRY
   83 00000000         
   84 00000000         Reset_Handler
                               PROC
   85 00000000         
   86 00000000         
   87 00000000 F7FF FFFE       BL               GPIO_ClockInit
   88 00000004 F7FF FFFE       BL               GPIO_init
   89 00000008 F7FF FFFE       BL               IDLE
   90 0000000C         
   91 0000000C         
   92 0000000C                 ENDP
   93 0000000C         ;;;;;;;;;;;;;;;;;;;;;;;;;;;;;;;;;;;;;;;;
   94 0000000C         ;; Subroutines
   95 0000000C         ;;
   96 0000000C         ;;;;;;;;;;;;;;;;;;;;;;;;;;;;;;;;;;;;;;;;
   97 0000000C         
   98 0000000C         
   99 0000000C         
  100 0000000C         ;;;;;;;;;;;;;;;;;;;;;;
  101 0000000C         ;; Turn on clocks
  102 0000000C         ;;
  103 0000000C         ;;
  104 0000000C         ;;;;;;;;;;;;;;;;;;;;;;
  105 0000000C         GPIO_ClockInit
                               PROC
  106 0000000C 4E71            LDR              R6, =RCC_APB2ENR
  107 0000000E 6830            LDR              R0, [R6]    ;
  108 00000010 F040 003C       ORR              R0, #0x3C
  109 00000014 6030            STR              R0, [R6]
  110 00000016 F04F 0C01       LDR              R12, = 0x1  ;
  111 0000001A         
  112 0000001A         
  113 0000001A 4770            BX               LR
  114 0000001C                 ALIGN
  115 0000001C                 ENDP
  116 0000001C         GPIO_init



ARM Macro Assembler    Page 5 


                               PROC
  117 0000001C F04F 3244       LDR              R2,= 0x44444444
  118 00000020 4F6D            LDR              R7,=GPIOA_CRH
  119 00000022 6839            LDR              R1, [R7]    ;
  120 00000024 603A            STR              R2, [R7]
  121 00000026 4F6D            LDR              R7,= GPIOB_CRH ;
  122 00000028 6839            LDR              R1, [R7]    ;
  123 0000002A         
  124 0000002A         
  125 0000002A 4770            BX               LR
  126 0000002C                 ALIGN
  127 0000002C                 ENDP
  128 0000002C         
  129 0000002C         ;;;;;;;;;;;;;;;;;;;;;;;;;
  130 0000002C         ;;; Idle State - UC1 and UC2;
  131 0000002C         ;;; 
  132 0000002C         ;;;
  133 0000002C         ;;;
  134 0000002C         ; ENEL 384 Pushbuttons: SW2(Red): PB8, SW3(Black): PB9, 
                       SW4(Blue): PC12 *****NEW for 2015**** SW5(Green): PA5
  135 0000002C         ; ENEL 384 board LEDs: D1 - PA9, D2 - PA10, D3 - PA11, D
                       4 - PA12
  136 0000002C         ;;;;;;;;;;;;;;;;;;;;;;;;;
  137 0000002C         
  138 0000002C         
  139 0000002C         
  140 0000002C         
  141 0000002C         
  142 0000002C         
  143 0000002C         
  144 0000002C         ;;;;;;;;;;;;;;;;;;;;;;;;;;;
  145 0000002C         ;; This IDLE State will constantly flash 
  146 0000002C         ;; a pattern of lights from 
  147 0000002C         ;; left to right in sequence 
  148 0000002C         ;;until a button is pushed
  149 0000002C         ;; UC2 - Waiting for Player Loop
  150 0000002C         ;;;;;;;;;;;;;;;;;;;;;;;;;;;
  151 0000002C         
  152 0000002C         
  153 0000002C         IDLE    PROC
  154 0000002C B500            PUSH             {LR}
  155 0000002E         
  156 0000002E F04F 0130       LDR              R1,= 0x30   ;
  157 00000032         GameWaitPattern
  158 00000032         
  159 00000032 4869            LDR              R0,= GPIOA_CRH ;
  160 00000034 6001            STR              R1, [R0]    ;
  161 00000036 F8DF 81A8       LDR              R8,= DELAYTIME
  162 0000003A F7FF FFFE       BL               oneSecondDelay
  163 0000003E         
  164 0000003E         
  165 0000003E         
  166 0000003E F7FF FFFE       BL               CheckforUser
  167 00000042 F5B1 3F40       CMP              R1, #0x30000 ; ;; Since we turn
                                                             on the light in se
                                                            quence, we must res
                                                            et back to the firs
                                                            t light at the end.
                                                            



ARM Macro Assembler    Page 6 


  168 00000046 BF08 2103       MOVEQ            R1, #0x3    ;  ;; This does exa
                                                            ctly that by taking
                                                             in the location of
                                                             which light we're 
                                                            at. then resets it.
                                                            
  169 0000004A EA4F 1101       LSL              R1, R1, #0x4 ;;
  170 0000004E         
  171 0000004E F85D EB04       POP              {LR}        ;
  172 00000052 E7EE            B                GameWaitPattern
  173 00000054                 ALIGN
  174 00000054                 ENDP
  175 00000054         CheckforUser
                               PROC
  176 00000054 4A63            LDR              R2,= GPIOB_IDR ; Loading in the
                                                             input for the Push
                                                            Buttons assigned at
                                                             Port B;
  177 00000056 6812            LDR              R2, [R2]    ; 
  178 00000058 EA4F 2212       LSR              R2, R2, #8  ; ;; We isolate the
                                                             bits corresponding
                                                             to a button press 
                                                            from either Red or 
                                                            Black.
  179 0000005C 2ADF            CMP              R2, #0xDF   ;
  180 0000005E DBFE            BLT              GameStart
  181 00000060 F04F 0200       LDR              R2,= 0x0    ;
  182 00000064 4A60            LDR              R2,= GPIOC_IDR ; ;; Check Blue 
                                                            Button at PC12
  183 00000066 6812            LDR              R2, [R2]    ;
  184 00000068 EA4F 3212       LSR              R2, R2, #12 ;
  185 0000006C 2A0E            CMP              R2, #0xE    ;
  186 0000006E D0FE            BEQ              GameStart
  187 00000070 F04F 0200       LDR              R2,= 0x0    ;
  188 00000074 4A5D            LDR              R2,= GPIOA_IDR ;; Check Green B
                                                            utton at PA5
  189 00000076 6812            LDR              R2, [R2]    ;
  190 00000078 EA4F 1252       LSR              R2, R2, #5  ;
  191 0000007C F002 0201       AND              R2, R2, #0x1 ;
  192 00000080 B162            CBZ              R2, GameStart ;
  193 00000082         
  194 00000082         
  195 00000082 4770            BX               LR          ;
  196 00000084                 ALIGN                        ;
  197 00000084                 ENDP                         ;
  198 00000084         
  199 00000084         
  200 00000084         oneSecondDelay
                               PROC
  201 00000084 F1A8 0801       SUB              R8,R8,#0x1  ;
  202 00000088 F1B8 0F00       CMP              R8, #0      ;
  203 0000008C DD00            BLE              endDelay
  204 0000008E DCFE            BGT              oneSecondDelay
  205 00000090                 ALIGN
  206 00000090                 ENDP
  207 00000090         endDelay
  208 00000090 4770            BX               LR          ;
  209 00000092         
  210 00000092         



ARM Macro Assembler    Page 7 


  211 00000092         
  212 00000092         
  213 00000092         GameWait
                               PROC
  214 00000092 F1A6 0601       SUB              R6, R6, #0x1 ;
  215 00000096 B106            CBZ              R6, TimerDone
  216 00000098 E7FE            B                GameWait
  217 0000009A         TimerDone
  218 0000009A 4770            BX               LR          ;
  219 0000009C                 ENDP
  220 0000009C         
  221 0000009C         
  222 0000009C         
  223 0000009C         
  224 0000009C         GameStart
                               PROC
  225 0000009C B500            PUSH             {LR}        ;
  226 0000009E F04F 0200       LDR              R2, = 0x0   ;
  227 000000A2         continuePlay
  228 000000A2 4953            LDR              R1,= 0x4444444 ;
  229 000000A4         ;; Rand Generator
  230 000000A4 4F4C            LDR              R7, =GPIOA_CRH ;
  231 000000A6 6039            STR              R1, [R7]    ;
  232 000000A8 F8DF 8148       LDR              R8, = PDTIME2 ;
  233 000000AC F7FF FFFE       BL               oneSecondDelay ;
  234 000000B0         
  235 000000B0 F04F 0A00       LDR              R10, = 0x0  ;
  236 000000B4         
  237 000000B4         loopmain                             ;
  238 000000B4         ; LDR R8,= REACT_TIME;
  239 000000B4         
  240 000000B4 F7FF FFFE       BL               Rand        ;
  241 000000B8         
  242 000000B8         
  243 000000B8 2C00            CMP              R4, #0x0    ;
  244 000000BA D0FE            BEQ              LED1        ;
  245 000000BC F1B4 4F40       CMP              R4, #0xC0000000 ;
  246 000000C0 D0FE            BEQ              LED2        ;
  247 000000C2 F1B4 4F00       CMP              R4, #0x80000000 ;
  248 000000C6 D0FE            BEQ              LED3        ;
  249 000000C8 F1B4 4F80       CMP              R4, #0x40000000 ;
  250 000000CC D0FE            BEQ              LED4        ; 
  251 000000CE         
  252 000000CE F04F 0A00       LDR              R10, = 0x0  ;
  253 000000D2 D1EF            BNE              loopmain
  254 000000D4         
  255 000000D4         
  256 000000D4         FinishedWinAnim
  257 000000D4 F85D EB04       POP              {LR}
  258 000000D8 E7FE            B                IDLE        ;
  259 000000DA 00 00           ALIGN
  260 000000DC                 ENDP
  261 000000DC         
  262 000000DC         Rand    PROC
  263 000000DC         ;; Rand Generator
  264 000000DC         
  265 000000DC F24C 3183       LDR              R1,= 50051  ;
  266 000000E0 F24C 3A83       LDR              R10, = 50051 ;
  267 000000E4 FB0C FC01       MUL              R12,R1      ;



ARM Macro Assembler    Page 8 


  268 000000E8 44D4            ADD              R12, R10    ;
  269 000000EA F00C 4440       AND              R4, R12, #0xC0000000 ;
  270 000000EE         
  271 000000EE 4770            BX               LR
  272 000000F0                 ALIGN
  273 000000F0                 ENDP
  274 000000F0         
  275 000000F0         WinState
                               PROC
  276 000000F0 F04F 0316       LDR              R3,= 0x16   ;
  277 000000F4 4F38            LDR              R7,= GPIOA_CRH ;
  278 000000F6         WinCycleLoop
  279 000000F6 F243 0130       LDR              R1,= 0x3030 ;
  280 000000FA 6039            STR              R1, [R7]    ;
  281 000000FC F8DF 80E0       LDR              R8,= DELAYTIME
  282 00000100 F7FF FFFE       BL               oneSecondDelay ;
  283 00000104 F1A3 0301       SUB              R3, R3, #1  ;
  284 00000108 EA4F 1101       LSL              R1, R1, #4  ;
  285 0000010C 6039            STR              R1, [R7]    ;
  286 0000010E F8DF 80D0       LDR              R8,= DELAYTIME
  287 00000112 F7FF FFFE       BL               oneSecondDelay ;
  288 00000116 F1A3 0301       SUB              R3, R3, #1  ;
  289 0000011A B103            CBZ              R3, resetBackToIDLE
  290 0000011C E7EB            B                WinCycleLoop
  291 0000011E         resetBackToIDLE
  292 0000011E E7FE            B                IDLE
  293 00000120                 ENDP
  294 00000120                 ALIGN
  295 00000120         PreLimWait
                               PROC
  296 00000120 4E34            LDR              R6, = PDTIME2 ;
  297 00000122 F10A 0A01       ADD              R10, R10, #0x1 ;
  298 00000126 45B2            CMP              R10, R6     ;
  299 00000128 D1FE            BNE              PreLimWait
  300 0000012A 4770            BX               LR          ;
  301 0000012C                 ALIGN
  302 0000012C                 ENDP
  303 0000012C         
  304 0000012C         LED1    PROC
  305 0000012C         
  306 0000012C F04F 0330       LDR              R3, = 0x30  ;
  307 00000130 603B            STR              R3, [R7]    ;
  308 00000132 F04F 0300       LDR              R3, = 0x0   ;
  309 00000136 4E30            LDR              R6,= REACT_TIME
  310 00000138 F7FF FFFE       BL               GameWait    ;
  311 0000013C F8DF 80A4       LDR              R8, = GPIOB_IDR
  312 00000140 F8D8 3000       LDR              R3, [R8]    ;
  313 00000144 EA4F 2313       LSR              R3, #0x8    ;
  314 00000148 2BDE            CMP              R3, #0xDE
  315 0000014A D0FE            BEQ              TurnOff1    ;
  316 0000014C E7FE            B                FailState
  317 0000014E 00 00           ALIGN
  318 00000150                 ENDP
  319 00000150         
  320 00000150         
  321 00000150         
  322 00000150         LED2    PROC
  323 00000150 F44F 7340       LDR              R3, = 0x300 ;
  324 00000154 603B            STR              R3, [R7]    ;



ARM Macro Assembler    Page 9 


  325 00000156 4E28            LDR              R6,= REACT_TIME
  326 00000158 F7FF FFFE       BL               GameWait    ;
  327 0000015C F8DF 8084       LDR              R8, = GPIOB_IDR
  328 00000160 F8D8 3000       LDR              R3, [R8]    ;
  329 00000164 EA4F 2313       LSR              R3, #0x8    ;
  330 00000168 2BDD            CMP              R3, #0xDD
  331 0000016A D0FE            BEQ              TurnOff1    ;
  332 0000016C E7FE            B                FailState
  333 0000016E 00 00           ALIGN
  334 00000170                 ENDP
  335 00000170         
  336 00000170         
  337 00000170         LED3    PROC
  338 00000170 F44F 5340       LDR              R3, = 0x3000 ;
  339 00000174 603B            STR              R3, [R7]    ;
  340 00000176 4E20            LDR              R6,= REACT_TIME
  341 00000178 F7FF FFFE       BL               GameWait
  342 0000017C F8DF 8068       LDR              R8, = GPIOC_IDR
  343 00000180 F8D8 3000       LDR              R3, [R8]    ;
  344 00000184 F403 5340       AND              R3, R3, #0x3000 ;
  345 00000188 F5B3 5F00       CMP              R3, #0x2000 ;
  346 0000018C D0FE            BEQ              TurnOff1    ;
  347 0000018E E7FE            B                FailState
  348 00000190                 ALIGN
  349 00000190                 ENDP
  350 00000190         
  351 00000190         
  352 00000190                 ALIGN
  353 00000190         LED4    PROC
  354 00000190 F44F 3340       LDR              R3, = 0x30000 ;
  355 00000194 603B            STR              R3, [R7]    ;
  356 00000196 4E18            LDR              R6,= REACT_TIME
  357 00000198 F7FF FFFE       BL               GameWait    ;
  358 0000019C F8DF 804C       LDR              R8, = GPIOA_IDR
  359 000001A0 F8D8 3000       LDR              R3, [R8]    ;
  360 000001A4 EA4F 1353       LSR              R3, R3, #5  ;
  361 000001A8 F003 0301       AND              R3, R3, #0x1 ;
  362 000001AC B103            CBZ              R3, TurnOff1 ;
  363 000001AE E7FE            B                FailState
  364 000001B0                 ALIGN
  365 000001B0                 ENDP
  366 000001B0         TurnOff1
                               PROC
  367 000001B0 F04F 0100       LDR              R1, =  0x0  ;
  368 000001B4 6039            STR              R1, [R7]    ;
  369 000001B6 F04F 0A00       LDR              R10,= 0x0   ;
  370 000001BA F102 0201       ADD              R2, R2, #1  ;
  371 000001BE 2A0F            CMP              R2, #15     ;
  372 000001C0 D0FE            BEQ              WinState
  373 000001C2 F7FF FFFE       BL               PreLimWait  ;
  374 000001C6 E76C            B                continuePlay ;
  375 000001C8                 ALIGN
  376 000001C8                 ENDP
  377 000001C8         
  378 000001C8         FailState
                               PROC
  379 000001C8         
  380 000001C8 490C            LDR              R1,= 0x33330 ;
  381 000001CA 4F03            LDR              R7,= GPIOA_CRH ;



ARM Macro Assembler    Page 10 


  382 000001CC 6039            STR              R1, [R7]    ;
  383 000001CE F7FF FFFE       BL               PreLimWait  ;
  384 000001D2         
  385 000001D2 E7FE            B                IDLE
  386 000001D4                 ALIGN
  387 000001D4                 ENDP
  388 000001D4         Finish
  389 000001D4         
  390 000001D4                 END
              40021018 
              40010804 
              40010C04 
              000493E0 
              40010C08 
              40011008 
              40010808 
              04444444 
              0007A120 
              0009EB10 
              00033330 
Command Line: --debug --xref --diag_suppress=9931 --cpu=Cortex-M3 --apcs=interw
ork --depend=.\objects\fp1.d -o.\objects\fp1.o -IC:\Users\shrey\Documents\Cours
es\ENSE352\Whac-A-Mole\RTE -IC:\Keil_v5\ARM\PACK\Keil\STM32F1xx_DFP\2.1.0\Devic
e\Include -IC:\Keil_v5\ARM\CMSIS\Include --predefine="__EVAL SETA 1" --predefin
e="__UVISION_VERSION SETA 521" --predefine="STM32F10X_MD_VL SETA 1" --list=.\li
stings\fp1.lst FP1.s



ARM Macro Assembler    Page 1 Alphabetic symbol ordering
Relocatable symbols

RESET 00000000

Symbol: RESET
   Definitions
      At line 74 in file FP1.s
   Uses
      None
Comment: RESET unused
__Vectors 00000000

Symbol: __Vectors
   Definitions
      At line 77 in file FP1.s
   Uses
      At line 75 in file FP1.s
Comment: __Vectors used once
2 symbols



ARM Macro Assembler    Page 1 Alphabetic symbol ordering
Relocatable symbols

CheckforUser 00000054

Symbol: CheckforUser
   Definitions
      At line 175 in file FP1.s
   Uses
      At line 166 in file FP1.s
Comment: CheckforUser used once
FailState 000001C8

Symbol: FailState
   Definitions
      At line 378 in file FP1.s
   Uses
      At line 316 in file FP1.s
      At line 332 in file FP1.s
      At line 347 in file FP1.s
      At line 363 in file FP1.s

Finish 000001D4

Symbol: Finish
   Definitions
      At line 388 in file FP1.s
   Uses
      None
Comment: Finish unused
FinishedWinAnim 000000D4

Symbol: FinishedWinAnim
   Definitions
      At line 256 in file FP1.s
   Uses
      None
Comment: FinishedWinAnim unused
GPIO_ClockInit 0000000C

Symbol: GPIO_ClockInit
   Definitions
      At line 105 in file FP1.s
   Uses
      At line 87 in file FP1.s
Comment: GPIO_ClockInit used once
GPIO_init 0000001C

Symbol: GPIO_init
   Definitions
      At line 116 in file FP1.s
   Uses
      At line 88 in file FP1.s
Comment: GPIO_init used once
GameStart 0000009C

Symbol: GameStart
   Definitions
      At line 224 in file FP1.s
   Uses
      At line 180 in file FP1.s
      At line 186 in file FP1.s



ARM Macro Assembler    Page 2 Alphabetic symbol ordering
Relocatable symbols

      At line 192 in file FP1.s

GameWait 00000092

Symbol: GameWait
   Definitions
      At line 213 in file FP1.s
   Uses
      At line 216 in file FP1.s
      At line 310 in file FP1.s
      At line 326 in file FP1.s
      At line 341 in file FP1.s
      At line 357 in file FP1.s

GameWaitPattern 00000032

Symbol: GameWaitPattern
   Definitions
      At line 157 in file FP1.s
   Uses
      At line 172 in file FP1.s
Comment: GameWaitPattern used once
IDLE 0000002C

Symbol: IDLE
   Definitions
      At line 153 in file FP1.s
   Uses
      At line 89 in file FP1.s
      At line 258 in file FP1.s
      At line 292 in file FP1.s
      At line 385 in file FP1.s

LED1 0000012C

Symbol: LED1
   Definitions
      At line 304 in file FP1.s
   Uses
      At line 244 in file FP1.s
Comment: LED1 used once
LED2 00000150

Symbol: LED2
   Definitions
      At line 322 in file FP1.s
   Uses
      At line 246 in file FP1.s
Comment: LED2 used once
LED3 00000170

Symbol: LED3
   Definitions
      At line 337 in file FP1.s
   Uses
      At line 248 in file FP1.s
Comment: LED3 used once
LED4 00000190




ARM Macro Assembler    Page 3 Alphabetic symbol ordering
Relocatable symbols

Symbol: LED4
   Definitions
      At line 353 in file FP1.s
   Uses
      At line 250 in file FP1.s
Comment: LED4 used once
MYCODE 00000000

Symbol: MYCODE
   Definitions
      At line 80 in file FP1.s
   Uses
      None
Comment: MYCODE unused
PreLimWait 00000120

Symbol: PreLimWait
   Definitions
      At line 295 in file FP1.s
   Uses
      At line 299 in file FP1.s
      At line 373 in file FP1.s
      At line 383 in file FP1.s

Rand 000000DC

Symbol: Rand
   Definitions
      At line 262 in file FP1.s
   Uses
      At line 240 in file FP1.s
Comment: Rand used once
Reset_Handler 00000000

Symbol: Reset_Handler
   Definitions
      At line 84 in file FP1.s
   Uses
      At line 78 in file FP1.s
      At line 81 in file FP1.s

TimerDone 0000009A

Symbol: TimerDone
   Definitions
      At line 217 in file FP1.s
   Uses
      At line 215 in file FP1.s
Comment: TimerDone used once
TurnOff1 000001B0

Symbol: TurnOff1
   Definitions
      At line 366 in file FP1.s
   Uses
      At line 315 in file FP1.s
      At line 331 in file FP1.s
      At line 346 in file FP1.s
      At line 362 in file FP1.s



ARM Macro Assembler    Page 4 Alphabetic symbol ordering
Relocatable symbols


WinCycleLoop 000000F6

Symbol: WinCycleLoop
   Definitions
      At line 278 in file FP1.s
   Uses
      At line 290 in file FP1.s
Comment: WinCycleLoop used once
WinState 000000F0

Symbol: WinState
   Definitions
      At line 275 in file FP1.s
   Uses
      At line 372 in file FP1.s
Comment: WinState used once
continuePlay 000000A2

Symbol: continuePlay
   Definitions
      At line 227 in file FP1.s
   Uses
      At line 374 in file FP1.s
Comment: continuePlay used once
endDelay 00000090

Symbol: endDelay
   Definitions
      At line 207 in file FP1.s
   Uses
      At line 203 in file FP1.s
Comment: endDelay used once
loopmain 000000B4

Symbol: loopmain
   Definitions
      At line 237 in file FP1.s
   Uses
      At line 253 in file FP1.s
Comment: loopmain used once
oneSecondDelay 00000084

Symbol: oneSecondDelay
   Definitions
      At line 200 in file FP1.s
   Uses
      At line 162 in file FP1.s
      At line 204 in file FP1.s
      At line 233 in file FP1.s
      At line 282 in file FP1.s
      At line 287 in file FP1.s

resetBackToIDLE 0000011E

Symbol: resetBackToIDLE
   Definitions
      At line 291 in file FP1.s
   Uses



ARM Macro Assembler    Page 5 Alphabetic symbol ordering
Relocatable symbols

      At line 289 in file FP1.s
Comment: resetBackToIDLE used once
27 symbols



ARM Macro Assembler    Page 1 Alphabetic symbol ordering
Absolute symbols

DELAYTIME 000493E0

Symbol: DELAYTIME
   Definitions
      At line 69 in file FP1.s
   Uses
      At line 161 in file FP1.s
      At line 281 in file FP1.s
      At line 286 in file FP1.s

GPIOA_BRR 40010814

Symbol: GPIOA_BRR
   Definitions
      At line 29 in file FP1.s
   Uses
      None
Comment: GPIOA_BRR unused
GPIOA_BSRR 40010810

Symbol: GPIOA_BSRR
   Definitions
      At line 28 in file FP1.s
   Uses
      None
Comment: GPIOA_BSRR unused
GPIOA_CRH 40010804

Symbol: GPIOA_CRH
   Definitions
      At line 25 in file FP1.s
   Uses
      At line 118 in file FP1.s
      At line 159 in file FP1.s
      At line 230 in file FP1.s
      At line 277 in file FP1.s
      At line 381 in file FP1.s

GPIOA_CRL 40010800

Symbol: GPIOA_CRL
   Definitions
      At line 24 in file FP1.s
   Uses
      None
Comment: GPIOA_CRL unused
GPIOA_IDR 40010808

Symbol: GPIOA_IDR
   Definitions
      At line 26 in file FP1.s
   Uses
      At line 188 in file FP1.s
      At line 358 in file FP1.s

GPIOA_LCKR 40010818

Symbol: GPIOA_LCKR
   Definitions



ARM Macro Assembler    Page 2 Alphabetic symbol ordering
Absolute symbols

      At line 30 in file FP1.s
   Uses
      None
Comment: GPIOA_LCKR unused
GPIOA_ODR 4001080C

Symbol: GPIOA_ODR
   Definitions
      At line 27 in file FP1.s
   Uses
      None
Comment: GPIOA_ODR unused
GPIOB_BRR 40010C14

Symbol: GPIOB_BRR
   Definitions
      At line 38 in file FP1.s
   Uses
      None
Comment: GPIOB_BRR unused
GPIOB_BSRR 40010C10

Symbol: GPIOB_BSRR
   Definitions
      At line 37 in file FP1.s
   Uses
      None
Comment: GPIOB_BSRR unused
GPIOB_CRH 40010C04

Symbol: GPIOB_CRH
   Definitions
      At line 34 in file FP1.s
   Uses
      At line 121 in file FP1.s
Comment: GPIOB_CRH used once
GPIOB_CRL 40010C00

Symbol: GPIOB_CRL
   Definitions
      At line 33 in file FP1.s
   Uses
      None
Comment: GPIOB_CRL unused
GPIOB_IDR 40010C08

Symbol: GPIOB_IDR
   Definitions
      At line 35 in file FP1.s
   Uses
      At line 176 in file FP1.s
      At line 311 in file FP1.s
      At line 327 in file FP1.s

GPIOB_LCKR 40010C18

Symbol: GPIOB_LCKR
   Definitions
      At line 39 in file FP1.s



ARM Macro Assembler    Page 3 Alphabetic symbol ordering
Absolute symbols

   Uses
      None
Comment: GPIOB_LCKR unused
GPIOB_ODR 40010C0C

Symbol: GPIOB_ODR
   Definitions
      At line 36 in file FP1.s
   Uses
      None
Comment: GPIOB_ODR unused
GPIOC_BRR 40011014

Symbol: GPIOC_BRR
   Definitions
      At line 48 in file FP1.s
   Uses
      None
Comment: GPIOC_BRR unused
GPIOC_BSRR 40011010

Symbol: GPIOC_BSRR
   Definitions
      At line 47 in file FP1.s
   Uses
      None
Comment: GPIOC_BSRR unused
GPIOC_CRH 40011004

Symbol: GPIOC_CRH
   Definitions
      At line 44 in file FP1.s
   Uses
      None
Comment: GPIOC_CRH unused
GPIOC_CRL 40011000

Symbol: GPIOC_CRL
   Definitions
      At line 43 in file FP1.s
   Uses
      None
Comment: GPIOC_CRL unused
GPIOC_IDR 40011008

Symbol: GPIOC_IDR
   Definitions
      At line 45 in file FP1.s
   Uses
      At line 182 in file FP1.s
      At line 342 in file FP1.s

GPIOC_LCKR 40011018

Symbol: GPIOC_LCKR
   Definitions
      At line 49 in file FP1.s
   Uses
      None



ARM Macro Assembler    Page 4 Alphabetic symbol ordering
Absolute symbols

Comment: GPIOC_LCKR unused
GPIOC_ODR 4001100C

Symbol: GPIOC_ODR
   Definitions
      At line 46 in file FP1.s
   Uses
      None
Comment: GPIOC_ODR unused
INITIAL_MSP 20001000

Symbol: INITIAL_MSP
   Definitions
      At line 20 in file FP1.s
   Uses
      At line 77 in file FP1.s
Comment: INITIAL_MSP used once
PDTIME 000927C0

Symbol: PDTIME
   Definitions
      At line 70 in file FP1.s
   Uses
      None
Comment: PDTIME unused
PDTIME2 0007A120

Symbol: PDTIME2
   Definitions
      At line 71 in file FP1.s
   Uses
      At line 232 in file FP1.s
      At line 296 in file FP1.s

RCC_AHBENR 40021014

Symbol: RCC_AHBENR
   Definitions
      At line 58 in file FP1.s
   Uses
      None
Comment: RCC_AHBENR unused
RCC_APB1ENR 4002101C

Symbol: RCC_APB1ENR
   Definitions
      At line 62 in file FP1.s
   Uses
      None
Comment: RCC_APB1ENR unused
RCC_APB1RSTR 40021010

Symbol: RCC_APB1RSTR
   Definitions
      At line 57 in file FP1.s
   Uses
      None
Comment: RCC_APB1RSTR unused
RCC_APB2ENR 40021018



ARM Macro Assembler    Page 5 Alphabetic symbol ordering
Absolute symbols


Symbol: RCC_APB2ENR
   Definitions
      At line 60 in file FP1.s
   Uses
      At line 106 in file FP1.s
Comment: RCC_APB2ENR used once
RCC_APB2RSTR 4002100C

Symbol: RCC_APB2RSTR
   Definitions
      At line 56 in file FP1.s
   Uses
      None
Comment: RCC_APB2RSTR unused
RCC_BDCR 40021020

Symbol: RCC_BDCR
   Definitions
      At line 63 in file FP1.s
   Uses
      None
Comment: RCC_BDCR unused
RCC_CFGR 40021004

Symbol: RCC_CFGR
   Definitions
      At line 54 in file FP1.s
   Uses
      None
Comment: RCC_CFGR unused
RCC_CFGR2 4002102C

Symbol: RCC_CFGR2
   Definitions
      At line 65 in file FP1.s
   Uses
      None
Comment: RCC_CFGR2 unused
RCC_CIR 40021008

Symbol: RCC_CIR
   Definitions
      At line 55 in file FP1.s
   Uses
      None
Comment: RCC_CIR unused
RCC_CR 40021000

Symbol: RCC_CR
   Definitions
      At line 53 in file FP1.s
   Uses
      None
Comment: RCC_CR unused
RCC_CSR 40021024

Symbol: RCC_CSR
   Definitions



ARM Macro Assembler    Page 6 Alphabetic symbol ordering
Absolute symbols

      At line 64 in file FP1.s
   Uses
      None
Comment: RCC_CSR unused
REACT_TIME 0009EB10

Symbol: REACT_TIME
   Definitions
      At line 72 in file FP1.s
   Uses
      At line 309 in file FP1.s
      At line 325 in file FP1.s
      At line 340 in file FP1.s
      At line 356 in file FP1.s

37 symbols
401 symbols in table
